target datalayout = "e-m:e-p270:32:32-p271:32:32-p272:64:64-i64:64-i128:128-f80:128-n8:16:32:64-S128"
target triple = "x86_64-pc-linux-gnu"

%"class.icu_77::number::Notation" = type { i32, %"union.icu_77::number::Notation::NotationUnion" }
%"union.icu_77::number::Notation::NotationUnion" = type { %"struct.icu_77::number::Notation::NotationUnion::ScientificSettings" }
%"struct.icu_77::number::Notation::NotationUnion::ScientificSettings" = type { i8, i8, i16, i32 }
%"class.icu_77::MeasureUnit" = type <{ %"class.icu_77::UObject", ptr, i16, i8, [5 x i8] }>
%"class.icu_77::UObject" = type { ptr }
%"class.icu_77::number::Precision" = type <{ i32, [4 x i8], %"union.icu_77::number::Precision::PrecisionUnion", i32, [4 x i8] }>
%"union.icu_77::number::Precision::PrecisionUnion" = type { %"struct.icu_77::number::Precision::PrecisionUnion::IncrementSettings" }
%"struct.icu_77::number::Precision::PrecisionUnion::IncrementSettings" = type { i64, i16, i16 }
%"class.icu_77::number::FractionPrecision" = type { %"class.icu_77::number::Precision.base", [4 x i8] }
%"class.icu_77::number::Precision.base" = type <{ i32, [4 x i8], %"union.icu_77::number::Precision::PrecisionUnion", i32 }>
%"struct.icu_77::number::impl::MacroProps" = type { [4 x i8], %"class.icu_77::number::Notation", %"class.icu_77::MeasureUnit", %"class.icu_77::MeasureUnit", %"class.icu_77::number::Precision", i32, %"class.icu_77::number::impl::Grouper", %"class.icu_77::number::impl::Padder", %"class.icu_77::number::IntegerWidth", %"class.icu_77::number::impl::SymbolsWrapper", i32, i32, i8, i32, %"class.icu_77::number::Scale", %"class.icu_77::number::impl::StringProp", %"class.icu_77::number::impl::StringProp", ptr, ptr, i32, [4 x i8], %"class.icu_77::Locale" }
%"class.icu_77::number::impl::Grouper" = type { i16, i16, i16, i32 }
%"class.icu_77::number::impl::Padder" = type { i32, %union.anon }
%union.anon = type { %struct.anon.1 }
%struct.anon.1 = type { i32, i32 }
%"class.icu_77::number::IntegerWidth" = type <{ %union.anon.2, i8, [3 x i8] }>
%union.anon.2 = type { i32, [4 x i8] }
%"class.icu_77::number::impl::SymbolsWrapper" = type { i32, %union.anon.4 }
%union.anon.4 = type { ptr }
%"class.icu_77::number::Scale" = type <{ i32, [4 x i8], ptr, i32, [4 x i8] }>
%"class.icu_77::number::impl::StringProp" = type { ptr, i16, i32 }
%"class.icu_77::Locale" = type <{ %"class.icu_77::UObject", [12 x i8], [6 x i8], [4 x i8], [2 x i8], i32, [4 x i8], ptr, [157 x i8], [3 x i8], ptr, i8, [7 x i8] }>

; Function Attrs: inlinehint mustprogress nounwind uwtable
define linkonce_odr noundef zeroext i1 @_ZN6icu_776number4impl8skeleton14isWildcardCharEDs(i16 noundef zeroext %0) #2 comdat {
  %2 = alloca i16, align 2
  store i16 %0, ptr %2, align 2, !tbaa !49
  %3 = load i16, ptr %2, align 2, !tbaa !49
  %4 = zext i16 %3 to i32
  %5 = icmp eq i32 %4, 42
  br i1 %5, label %10, label %6

6:                                                ; preds = %1
  %7 = load i16, ptr %2, align 2, !tbaa !49
  %8 = zext i16 %7 to i32
  %9 = icmp eq i32 %8, 43
  br label %10

10:                                               ; preds = %6, %1
  %11 = phi i1 [ true, %1 ], [ %9, %6 ]
  ret i1 %11
}

; Function Attrs: mustprogress uwtable
define void @_ZN6icu_776number4impl17blueprint_helpers17parseFractionStemERKNS_13StringSegmentERNS1_10MacroPropsER10UErrorCode(ptr noundef nonnull align 8 dereferenceable(17) %0, ptr noundef nonnull align 8 dereferenceable(472) %1, ptr noundef nonnull align 4 dereferenceable(4) %2) #1 {
  %4 = alloca ptr, align 8
  %5 = alloca ptr, align 8
  %6 = alloca ptr, align 8
  %7 = alloca i32, align 4
  %8 = alloca i32, align 4
  %9 = alloca i32, align 4
  %10 = alloca i32, align 4
  %11 = alloca %"class.icu_77::number::Precision", align 8
  %12 = alloca %"class.icu_77::number::FractionPrecision", align 8
  %13 = alloca %"class.icu_77::number::FractionPrecision", align 8
  store ptr %0, ptr %4, align 8, !tbaa !132
  store ptr %1, ptr %5, align 8, !tbaa !75
  store ptr %2, ptr %6, align 8, !tbaa !22
  call void @llvm.lifetime.start.p0(i64 4, ptr %7) #14
  store i32 1, ptr %7, align 4, !tbaa !14
  call void @llvm.lifetime.start.p0(i64 4, ptr %8) #14
  store i32 0, ptr %8, align 4, !tbaa !14
  call void @llvm.lifetime.start.p0(i64 4, ptr %9) #14
  br label %14

14:                                               ; preds = %30, %3
  %15 = load i32, ptr %7, align 4, !tbaa !14
  %16 = load ptr, ptr %4, align 8, !tbaa !132
  %17 = call noundef i32 @_ZNK6icu_7713StringSegment6lengthEv(ptr noundef nonnull align 8 dereferenceable(17) %16)
  %18 = icmp slt i32 %15, %17
  br i1 %18, label %19, label %33

19:                                               ; preds = %14
  %20 = load ptr, ptr %4, align 8, !tbaa !132
  %21 = load i32, ptr %7, align 4, !tbaa !14
  %22 = call noundef zeroext i16 @_ZNK6icu_7713StringSegment6charAtEi(ptr noundef nonnull align 8 dereferenceable(17) %20, i32 noundef %21)
  %23 = zext i16 %22 to i32
  %24 = icmp eq i32 %23, 48
  br i1 %24, label %25, label %28

25:                                               ; preds = %19
  %26 = load i32, ptr %8, align 4, !tbaa !14
  %27 = add nsw i32 %26, 1
  store i32 %27, ptr %8, align 4, !tbaa !14
  br label %29

28:                                               ; preds = %19
  br label %33

29:                                               ; preds = %25
  br label %30

30:                                               ; preds = %29
  %31 = load i32, ptr %7, align 4, !tbaa !14
  %32 = add nsw i32 %31, 1
  store i32 %32, ptr %7, align 4, !tbaa !14
  br label %14, !llvm.loop !136

33:                                               ; preds = %28, %14
  %34 = load i32, ptr %7, align 4, !tbaa !14
  %35 = load ptr, ptr %4, align 8, !tbaa !132
  %36 = call noundef i32 @_ZNK6icu_7713StringSegment6lengthEv(ptr noundef nonnull align 8 dereferenceable(17) %35)
  %37 = icmp slt i32 %34, %36
  br i1 %37, label %38, label %69

38:                                               ; preds = %33
  %39 = load ptr, ptr %4, align 8, !tbaa !132
  %40 = load i32, ptr %7, align 4, !tbaa !14
  %41 = call noundef zeroext i16 @_ZNK6icu_7713StringSegment6charAtEi(ptr noundef nonnull align 8 dereferenceable(17) %39, i32 noundef %40)
  %42 = call noundef zeroext i1 @_ZN6icu_776number4impl8skeleton14isWildcardCharEDs(i16 noundef zeroext %41)
  br i1 %42, label %43, label %46

43:                                               ; preds = %38
  store i32 -1, ptr %9, align 4, !tbaa !14
  %44 = load i32, ptr %7, align 4, !tbaa !14
  %45 = add nsw i32 %44, 1
  store i32 %45, ptr %7, align 4, !tbaa !14
  br label %68

46:                                               ; preds = %38
  %47 = load i32, ptr %8, align 4, !tbaa !14
  store i32 %47, ptr %9, align 4, !tbaa !14
  br label %48

48:                                               ; preds = %64, %46
  %49 = load i32, ptr %7, align 4, !tbaa !14
  %50 = load ptr, ptr %4, align 8, !tbaa !132
  %51 = call noundef i32 @_ZNK6icu_7713StringSegment6lengthEv(ptr noundef nonnull align 8 dereferenceable(17) %50)
  %52 = icmp slt i32 %49, %51
  br i1 %52, label %53, label %67

53:                                               ; preds = %48
  %54 = load ptr, ptr %4, align 8, !tbaa !132
  %55 = load i32, ptr %7, align 4, !tbaa !14
  %56 = call noundef zeroext i16 @_ZNK6icu_7713StringSegment6charAtEi(ptr noundef nonnull align 8 dereferenceable(17) %54, i32 noundef %55)
  %57 = zext i16 %56 to i32
  %58 = icmp eq i32 %57, 35
  br i1 %58, label %59, label %62

59:                                               ; preds = %53
  %60 = load i32, ptr %9, align 4, !tbaa !14
  %61 = add nsw i32 %60, 1
  store i32 %61, ptr %9, align 4, !tbaa !14
  br label %63

62:                                               ; preds = %53
  br label %67

63:                                               ; preds = %59
  br label %64

64:                                               ; preds = %63
  %65 = load i32, ptr %7, align 4, !tbaa !14
  %66 = add nsw i32 %65, 1
  store i32 %66, ptr %7, align 4, !tbaa !14
  br label %48, !llvm.loop !137

67:                                               ; preds = %62, %48
  br label %68

68:                                               ; preds = %67, %43
  br label %71

69:                                               ; preds = %33
  %70 = load i32, ptr %8, align 4, !tbaa !14
  store i32 %70, ptr %9, align 4, !tbaa !14
  br label %71

71:                                               ; preds = %69, %68
  %72 = load i32, ptr %7, align 4, !tbaa !14
  %73 = load ptr, ptr %4, align 8, !tbaa !132
  %74 = call noundef i32 @_ZNK6icu_7713StringSegment6lengthEv(ptr noundef nonnull align 8 dereferenceable(17) %73)
  %75 = icmp slt i32 %72, %74
  br i1 %75, label %76, label %78

76:                                               ; preds = %71
  %77 = load ptr, ptr %6, align 8, !tbaa !22
  store i32 65811, ptr %77, align 4, !tbaa !15
  store i32 1, ptr %10, align 4
  br label %98

78:                                               ; preds = %71
  %79 = load i32, ptr %9, align 4, !tbaa !14
  %80 = icmp eq i32 %79, -1
  br i1 %80, label %81, label %92

81:                                               ; preds = %78
  %82 = load i32, ptr %8, align 4, !tbaa !14
  %83 = icmp eq i32 %82, 0
  br i1 %83, label %84, label %87

84:                                               ; preds = %81
  call void @llvm.lifetime.start.p0(i64 32, ptr %11) #14
  call void @_ZN6icu_776number9Precision9unlimitedEv(ptr dead_on_unwind writable sret(%"class.icu_77::number::Precision") align 8 %11)
  %85 = load ptr, ptr %5, align 8, !tbaa !75
  %86 = getelementptr inbounds nuw %"struct.icu_77::number::impl::MacroProps", ptr %85, i32 0, i32 4
  call void @llvm.memcpy.p0.p0.i64(ptr align 8 %86, ptr align 8 %11, i64 28, i1 false)
  call void @llvm.lifetime.end.p0(i64 32, ptr %11) #14
  br label %91

87:                                               ; preds = %81
  call void @llvm.lifetime.start.p0(i64 32, ptr %12) #14
  %88 = load i32, ptr %8, align 4, !tbaa !14
  call void @_ZN6icu_776number9Precision11minFractionEi(ptr dead_on_unwind writable sret(%"class.icu_77::number::FractionPrecision") align 8 %12, i32 noundef %88)
  %89 = load ptr, ptr %5, align 8, !tbaa !75
  %90 = getelementptr inbounds nuw %"struct.icu_77::number::impl::MacroProps", ptr %89, i32 0, i32 4
  call void @llvm.memcpy.p0.p0.i64(ptr align 8 %90, ptr align 8 %12, i64 28, i1 false)
  call void @llvm.lifetime.end.p0(i64 32, ptr %12) #14
  br label %91

91:                                               ; preds = %87, %84
  br label %97

92:                                               ; preds = %78
  call void @llvm.lifetime.start.p0(i64 32, ptr %13) #14
  %93 = load i32, ptr %8, align 4, !tbaa !14
  %94 = load i32, ptr %9, align 4, !tbaa !14
  call void @_ZN6icu_776number9Precision14minMaxFractionEii(ptr dead_on_unwind writable sret(%"class.icu_77::number::FractionPrecision") align 8 %13, i32 noundef %93, i32 noundef %94)
  %95 = load ptr, ptr %5, align 8, !tbaa !75
  %96 = getelementptr inbounds nuw %"struct.icu_77::number::impl::MacroProps", ptr %95, i32 0, i32 4
  call void @llvm.memcpy.p0.p0.i64(ptr align 8 %96, ptr align 8 %13, i64 28, i1 false)
  call void @llvm.lifetime.end.p0(i64 32, ptr %13) #14
  br label %97

97:                                               ; preds = %92, %91
  store i32 0, ptr %10, align 4
  br label %98

98:                                               ; preds = %97, %76
  call void @llvm.lifetime.end.p0(i64 4, ptr %9) #14
  call void @llvm.lifetime.end.p0(i64 4, ptr %8) #14
  call void @llvm.lifetime.end.p0(i64 4, ptr %7) #14
  %99 = load i32, ptr %10, align 4
  switch i32 %99, label %101 [
    i32 0, label %100
    i32 1, label %100
  ]

100:                                              ; preds = %98, %98
  ret void

101:                                              ; preds = %98
  unreachable
}