; Function Attrs: mustprogress uwtable
define void @_ZN6icu_776number4impl17blueprint_helpers17parseFractionStemERKNS_13StringSegmentERNS1_10MacroPropsER10UErrorCode(ptr noundef nonnull align 8 dereferenceable(17) %0, ptr noundef nonnull writeonly align 8 captures(none) dereferenceable(472) %1, ptr noundef nonnull writeonly align 4 captures(none) dereferenceable(4) %2) local_unnamed_addr #1 {
  %4 = alloca %"class.icu_77::number::Precision", align 8
  %5 = alloca %"class.icu_77::number::FractionPrecision", align 8
  %6 = alloca %"class.icu_77::number::FractionPrecision", align 8
  %7 = tail call noundef i32 @_ZNK6icu_7713StringSegment6lengthEv(ptr noundef nonnull align 8 dereferenceable(17) %0)
  %8 = icmp sgt i32 %7, 1
  br i1 %8, label %.lr.ph, label %._crit_edge

.lr.ph:                                           ; preds = %3, %11
  %.02938 = phi i32 [ %12, %11 ], [ 0, %3 ]
  %.03037 = phi i32 [ %13, %11 ], [ 1, %3 ]
  %9 = tail call noundef zeroext i16 @_ZNK6icu_7713StringSegment6charAtEi(ptr noundef nonnull align 8 dereferenceable(17) %0, i32 noundef %.03037)
  %10 = icmp eq i16 %9, 48
  br i1 %10, label %11, label %._crit_edge

11:                                               ; preds = %.lr.ph
  %12 = add nuw nsw i32 %.02938, 1
  %13 = add nuw nsw i32 %.03037, 1
  %14 = tail call noundef i32 @_ZNK6icu_7713StringSegment6lengthEv(ptr noundef nonnull align 8 dereferenceable(17) %0)
  %15 = icmp slt i32 %13, %14
  br i1 %15, label %.lr.ph, label %._crit_edge, !llvm.loop !103

._crit_edge:                                      ; preds = %11, %.lr.ph, %3
  %.030.lcssa = phi i32 [ 1, %3 ], [ %.03037, %.lr.ph ], [ %13, %11 ]
  %.029.lcssa = phi i32 [ 0, %3 ], [ %.02938, %.lr.ph ], [ %12, %11 ]
  %16 = tail call noundef i32 @_ZNK6icu_7713StringSegment6lengthEv(ptr noundef nonnull align 8 dereferenceable(17) %0)
  %17 = icmp slt i32 %.030.lcssa, %16
  br i1 %17, label %18, label %.loopexit

18:                                               ; preds = %._crit_edge
  %19 = tail call noundef zeroext i16 @_ZNK6icu_7713StringSegment6charAtEi(ptr noundef nonnull align 8 dereferenceable(17) %0, i32 noundef %.030.lcssa)
  %20 = and i16 %19, -2
  %21 = icmp eq i16 %20, 42
  br i1 %21, label %.thread, label %.preheader

.preheader:                                       ; preds = %18
  %22 = tail call noundef i32 @_ZNK6icu_7713StringSegment6lengthEv(ptr noundef nonnull align 8 dereferenceable(17) %0)
  %23 = icmp slt i32 %.030.lcssa, %22
  br i1 %23, label %.lr.ph45, label %.loopexit

.lr.ph45:                                         ; preds = %.preheader, %26
  %.044 = phi i32 [ %27, %26 ], [ %.029.lcssa, %.preheader ]
  %.13143 = phi i32 [ %28, %26 ], [ %.030.lcssa, %.preheader ]
  %24 = tail call noundef zeroext i16 @_ZNK6icu_7713StringSegment6charAtEi(ptr noundef nonnull align 8 dereferenceable(17) %0, i32 noundef %.13143)
  %25 = icmp eq i16 %24, 35
  br i1 %25, label %26, label %.loopexit

26:                                               ; preds = %.lr.ph45
  %27 = add nuw nsw i32 %.044, 1
  %28 = add nuw nsw i32 %.13143, 1
  %29 = tail call noundef i32 @_ZNK6icu_7713StringSegment6lengthEv(ptr noundef nonnull align 8 dereferenceable(17) %0)
  %30 = icmp slt i32 %28, %29
  br i1 %30, label %.lr.ph45, label %.loopexit, !llvm.loop !104

.loopexit:                                        ; preds = %26, %.lr.ph45, %.preheader, %._crit_edge
  %.2 = phi i32 [ %.030.lcssa, %._crit_edge ], [ %.030.lcssa, %.preheader ], [ %28, %26 ], [ %.13143, %.lr.ph45 ]
  %.1 = phi i32 [ %.029.lcssa, %._crit_edge ], [ %.029.lcssa, %.preheader ], [ %27, %26 ], [ %.044, %.lr.ph45 ]
  %31 = tail call noundef i32 @_ZNK6icu_7713StringSegment6lengthEv(ptr noundef nonnull align 8 dereferenceable(17) %0)
  %32 = icmp slt i32 %.2, %31
  br i1 %32, label %36, label %42

.thread:                                          ; preds = %18
  %33 = add nuw nsw i32 %.030.lcssa, 1
  %34 = tail call noundef i32 @_ZNK6icu_7713StringSegment6lengthEv(ptr noundef nonnull align 8 dereferenceable(17) %0)
  %35 = icmp slt i32 %33, %34
  br i1 %35, label %36, label %37

36:                                               ; preds = %.thread, %.loopexit
  store i32 65811, ptr %2, align 4, !tbaa !13
  br label %44

37:                                               ; preds = %.thread
  %38 = icmp eq i32 %.029.lcssa, 0
  %39 = getelementptr inbounds nuw i8, ptr %1, i64 64
  br i1 %38, label %40, label %41

40:                                               ; preds = %37
  call void @llvm.lifetime.start.p0(i64 32, ptr nonnull %4) #18
  call void @_ZN6icu_776number9Precision9unlimitedEv(ptr dead_on_unwind nonnull writable sret(%"class.icu_77::number::Precision") align 8 %4)
  call void @llvm.memcpy.p0.p0.i64(ptr noundef nonnull align 8 dereferenceable(28) %39, ptr noundef nonnull align 8 dereferenceable(28) %4, i64 28, i1 false)
  call void @llvm.lifetime.end.p0(i64 32, ptr nonnull %4) #18
  br label %44

41:                                               ; preds = %37
  call void @llvm.lifetime.start.p0(i64 32, ptr nonnull %5) #18
  call void @_ZN6icu_776number9Precision11minFractionEi(ptr dead_on_unwind nonnull writable sret(%"class.icu_77::number::FractionPrecision") align 8 %5, i32 noundef %.029.lcssa)
  call void @llvm.memcpy.p0.p0.i64(ptr noundef nonnull align 8 dereferenceable(28) %39, ptr noundef nonnull align 8 dereferenceable(28) %5, i64 28, i1 false)
  call void @llvm.lifetime.end.p0(i64 32, ptr nonnull %5) #18
  br label %44

42:                                               ; preds = %.loopexit
  call void @llvm.lifetime.start.p0(i64 32, ptr nonnull %6) #18
  call void @_ZN6icu_776number9Precision14minMaxFractionEii(ptr dead_on_unwind nonnull writable sret(%"class.icu_77::number::FractionPrecision") align 8 %6, i32 noundef %.029.lcssa, i32 noundef %.1)
  %43 = getelementptr inbounds nuw i8, ptr %1, i64 64
  call void @llvm.memcpy.p0.p0.i64(ptr noundef nonnull align 8 dereferenceable(28) %43, ptr noundef nonnull align 8 dereferenceable(28) %6, i64 28, i1 false)
  call void @llvm.lifetime.end.p0(i64 32, ptr nonnull %6) #18
  br label %44

44:                                               ; preds = %42, %41, %40, %36
  ret void
}